target datalayout = "e-m:e-p270:32:32-p271:32:32-p272:64:64-i64:64-i128:128-f80:128-n8:16:32:64-S128"
target triple = "x86_64-pc-linux-gnu"

%struct.crypto_hash_sha256_state = type { [8 x i32], i64, [64 x i8] }

; Function Attrs: nounwind ssp uwtable
define dso_local i32 @crypto_hash_sha256_update(ptr noundef nonnull %0, ptr noundef %1, i64 noundef %2) #0 {
  %4 = alloca i32, align 4
  %5 = alloca ptr, align 8
  %6 = alloca ptr, align 8
  %7 = alloca i64, align 8
  %8 = alloca [72 x i32], align 16
  %9 = alloca i64, align 8
  %10 = alloca i64, align 8
  %11 = alloca i32, align 4
  store ptr %0, ptr %5, align 8
  store ptr %1, ptr %6, align 8
  store i64 %2, ptr %7, align 8
  call void @llvm.lifetime.start.p0(i64 288, ptr %8) #7
  call void @llvm.lifetime.start.p0(i64 8, ptr %9) #7
  call void @llvm.lifetime.start.p0(i64 8, ptr %10) #7
  %12 = load i64, ptr %7, align 8
  %13 = icmp ule i64 %12, 0
  br i1 %13, label %14, label %15

14:                                               ; preds = %3
  store i32 0, ptr %4, align 4
  store i32 1, ptr %11, align 4
  br label %123

15:                                               ; preds = %3
  fence acquire
  %16 = load ptr, ptr %5, align 8
  %17 = getelementptr inbounds nuw %struct.crypto_hash_sha256_state, ptr %16, i32 0, i32 1
  %18 = load i64, ptr %17, align 8
  %19 = lshr i64 %18, 3
  %20 = and i64 %19, 63
  store i64 %20, ptr %10, align 8
  %21 = load i64, ptr %7, align 8
  %22 = shl i64 %21, 3
  %23 = load ptr, ptr %5, align 8
  %24 = getelementptr inbounds nuw %struct.crypto_hash_sha256_state, ptr %23, i32 0, i32 1
  %25 = load i64, ptr %24, align 8
  %26 = add i64 %25, %22
  store i64 %26, ptr %24, align 8
  %27 = load i64, ptr %7, align 8
  %28 = load i64, ptr %10, align 8
  %29 = sub i64 64, %28
  %30 = icmp ult i64 %27, %29
  br i1 %30, label %31, label %51

31:                                               ; preds = %15
  store i64 0, ptr %9, align 8
  br label %32

32:                                               ; preds = %47, %31
  %33 = load i64, ptr %9, align 8
  %34 = load i64, ptr %7, align 8
  %35 = icmp ult i64 %33, %34
  br i1 %35, label %36, label %50

36:                                               ; preds = %32
  %37 = load ptr, ptr %6, align 8
  %38 = load i64, ptr %9, align 8
  %39 = getelementptr i8, ptr %37, i64 %38
  %40 = load i8, ptr %39, align 1
  %41 = load ptr, ptr %5, align 8
  %42 = getelementptr inbounds nuw %struct.crypto_hash_sha256_state, ptr %41, i32 0, i32 2
  %43 = load i64, ptr %10, align 8
  %44 = load i64, ptr %9, align 8
  %45 = add i64 %43, %44
  %46 = getelementptr [64 x i8], ptr %42, i64 0, i64 %45
  store i8 %40, ptr %46, align 1
  br label %47

47:                                               ; preds = %36
  %48 = load i64, ptr %9, align 8
  %49 = add i64 %48, 1
  store i64 %49, ptr %9, align 8
  br label %32, !llvm.loop !4

50:                                               ; preds = %32
  store i32 0, ptr %4, align 4
  store i32 1, ptr %11, align 4
  br label %123

51:                                               ; preds = %15
  store i64 0, ptr %9, align 8
  br label %52

52:                                               ; preds = %68, %51
  %53 = load i64, ptr %9, align 8
  %54 = load i64, ptr %10, align 8
  %55 = sub i64 64, %54
  %56 = icmp ult i64 %53, %55
  br i1 %56, label %57, label %71

57:                                               ; preds = %52
  %58 = load ptr, ptr %6, align 8
  %59 = load i64, ptr %9, align 8
  %60 = getelementptr i8, ptr %58, i64 %59
  %61 = load i8, ptr %60, align 1
  %62 = load ptr, ptr %5, align 8
  %63 = getelementptr inbounds nuw %struct.crypto_hash_sha256_state, ptr %62, i32 0, i32 2
  %64 = load i64, ptr %10, align 8
  %65 = load i64, ptr %9, align 8
  %66 = add i64 %64, %65
  %67 = getelementptr [64 x i8], ptr %63, i64 0, i64 %66
  store i8 %61, ptr %67, align 1
  br label %68

68:                                               ; preds = %57
  %69 = load i64, ptr %9, align 8
  %70 = add i64 %69, 1
  store i64 %70, ptr %9, align 8
  br label %52, !llvm.loop !6

71:                                               ; preds = %52
  %72 = load ptr, ptr %5, align 8
  %73 = getelementptr inbounds nuw %struct.crypto_hash_sha256_state, ptr %72, i32 0, i32 0
  %74 = getelementptr inbounds [8 x i32], ptr %73, i64 0, i64 0
  %75 = load ptr, ptr %5, align 8
  %76 = getelementptr inbounds nuw %struct.crypto_hash_sha256_state, ptr %75, i32 0, i32 2
  %77 = getelementptr inbounds [64 x i8], ptr %76, i64 0, i64 0
  %78 = getelementptr [72 x i32], ptr %8, i64 0, i64 0
  %79 = getelementptr [72 x i32], ptr %8, i64 0, i64 64
  call void @SHA256_Transform(ptr noundef %74, ptr noundef %77, ptr noundef %78, ptr noundef %79)
  %80 = load i64, ptr %10, align 8
  %81 = sub i64 64, %80
  %82 = load ptr, ptr %6, align 8
  %83 = getelementptr i8, ptr %82, i64 %81
  store ptr %83, ptr %6, align 8
  %84 = load i64, ptr %10, align 8
  %85 = sub i64 64, %84
  %86 = load i64, ptr %7, align 8
  %87 = sub i64 %86, %85
  store i64 %87, ptr %7, align 8
  br label %88

88:                                               ; preds = %91, %71
  %89 = load i64, ptr %7, align 8
  %90 = icmp uge i64 %89, 64
  br i1 %90, label %91, label %102

91:                                               ; preds = %88
  %92 = load ptr, ptr %5, align 8
  %93 = getelementptr inbounds nuw %struct.crypto_hash_sha256_state, ptr %92, i32 0, i32 0
  %94 = getelementptr inbounds [8 x i32], ptr %93, i64 0, i64 0
  %95 = load ptr, ptr %6, align 8
  %96 = getelementptr [72 x i32], ptr %8, i64 0, i64 0
  %97 = getelementptr [72 x i32], ptr %8, i64 0, i64 64
  call void @SHA256_Transform(ptr noundef %94, ptr noundef %95, ptr noundef %96, ptr noundef %97)
  %98 = load ptr, ptr %6, align 8
  %99 = getelementptr i8, ptr %98, i64 64
  store ptr %99, ptr %6, align 8
  %100 = load i64, ptr %7, align 8
  %101 = sub i64 %100, 64
  store i64 %101, ptr %7, align 8
  br label %88, !llvm.loop !7

102:                                              ; preds = %88
  %103 = load i64, ptr %7, align 8
  %104 = and i64 %103, 63
  store i64 %104, ptr %7, align 8
  store i64 0, ptr %9, align 8
  br label %105

105:                                              ; preds = %118, %102
  %106 = load i64, ptr %9, align 8
  %107 = load i64, ptr %7, align 8
  %108 = icmp ult i64 %106, %107
  br i1 %108, label %109, label %121

109:                                              ; preds = %105
  %110 = load ptr, ptr %6, align 8
  %111 = load i64, ptr %9, align 8
  %112 = getelementptr i8, ptr %110, i64 %111
  %113 = load i8, ptr %112, align 1
  %114 = load ptr, ptr %5, align 8
  %115 = getelementptr inbounds nuw %struct.crypto_hash_sha256_state, ptr %114, i32 0, i32 2
  %116 = load i64, ptr %9, align 8
  %117 = getelementptr [64 x i8], ptr %115, i64 0, i64 %116
  store i8 %113, ptr %117, align 1
  br label %118

118:                                              ; preds = %109
  %119 = load i64, ptr %9, align 8
  %120 = add i64 %119, 1
  store i64 %120, ptr %9, align 8
  br label %105, !llvm.loop !8

121:                                              ; preds = %105
  %122 = getelementptr inbounds [72 x i32], ptr %8, i64 0, i64 0
  call void @sodium_memzero(ptr noundef %122, i64 noundef 288)
  store i32 0, ptr %4, align 4
  store i32 1, ptr %11, align 4
  br label %123

123:                                              ; preds = %121, %50, %14
  call void @llvm.lifetime.end.p0(i64 8, ptr %10) #7
  call void @llvm.lifetime.end.p0(i64 8, ptr %9) #7
  call void @llvm.lifetime.end.p0(i64 288, ptr %8) #7
  %124 = load i32, ptr %4, align 4
  ret i32 %124
}