; Function Attrs: nounwind ssp uwtable
define dso_local noundef i32 @crypto_hash_sha256_update(ptr noundef nonnull captures(none) %0, ptr noundef readonly captures(none) %1, i64 noundef %2) local_unnamed_addr #1 {
  %4 = alloca [72 x i32], align 16
  call void @llvm.lifetime.start.p0(i64 288, ptr nonnull %4) #7
  %5 = icmp eq i64 %2, 0
  br i1 %5, label %.loopexit, label %6

6:                                                ; preds = %3
  fence acquire
  %7 = getelementptr inbounds nuw i8, ptr %0, i64 32
  %8 = load i64, ptr %7, align 8
  %9 = lshr i64 %8, 3
  %10 = and i64 %9, 63
  %11 = shl i64 %2, 3
  %12 = add i64 %8, %11
  store i64 %12, ptr %7, align 8
  %13 = sub nuw nsw i64 64, %10
  %14 = icmp ult i64 %2, %13
  %15 = getelementptr inbounds nuw i8, ptr %0, i64 40
  br i1 %14, label %.preheader, label %.preheader46

.preheader:                                       ; preds = %6, %.preheader
  %.04153 = phi i64 [ %20, %.preheader ], [ 0, %6 ]
  %16 = getelementptr i8, ptr %1, i64 %.04153
  %17 = load i8, ptr %16, align 1
  %18 = add nuw nsw i64 %.04153, %10
  %19 = getelementptr [64 x i8], ptr %15, i64 0, i64 %18
  store i8 %17, ptr %19, align 1
  %20 = add nuw nsw i64 %.04153, 1
  %exitcond56.not = icmp eq i64 %20, %2
  br i1 %exitcond56.not, label %.loopexit, label %.preheader, !llvm.loop !4

.preheader46:                                     ; preds = %6, %.preheader46
  %.147 = phi i64 [ %25, %.preheader46 ], [ 0, %6 ]
  %21 = getelementptr i8, ptr %1, i64 %.147
  %22 = load i8, ptr %21, align 1
  %23 = add nuw nsw i64 %.147, %10
  %24 = getelementptr [64 x i8], ptr %15, i64 0, i64 %23
  store i8 %22, ptr %24, align 1
  %25 = add nuw nsw i64 %.147, 1
  %exitcond.not = icmp eq i64 %25, %13
  br i1 %exitcond.not, label %26, label %.preheader46, !llvm.loop !6

26:                                               ; preds = %.preheader46
  %27 = getelementptr inbounds nuw i8, ptr %4, i64 256
  call fastcc void @SHA256_Transform(ptr noundef %0, ptr noundef nonnull %15, ptr noundef %4, ptr noundef nonnull %27)
  %28 = getelementptr i8, ptr %1, i64 %13
  %29 = sub i64 %2, %13
  %30 = icmp ugt i64 %29, 63
  br i1 %30, label %.lr.ph, label %.preheader45

.preheader45:                                     ; preds = %.lr.ph, %26
  %.043.lcssa = phi ptr [ %28, %26 ], [ %31, %.lr.ph ]
  %.042.lcssa = phi i64 [ %29, %26 ], [ %32, %.lr.ph ]
  %.not = icmp eq i64 %.042.lcssa, 0
  br i1 %.not, label %._crit_edge, label %.lr.ph52

.lr.ph:                                           ; preds = %26, %.lr.ph
  %.04249 = phi i64 [ %32, %.lr.ph ], [ %29, %26 ]
  %.04348 = phi ptr [ %31, %.lr.ph ], [ %28, %26 ]
  call fastcc void @SHA256_Transform(ptr noundef %0, ptr noundef %.04348, ptr noundef %4, ptr noundef nonnull %27)
  %31 = getelementptr i8, ptr %.04348, i64 64
  %32 = add i64 %.04249, -64
  %33 = icmp ugt i64 %32, 63
  br i1 %33, label %.lr.ph, label %.preheader45, !llvm.loop !7

.lr.ph52:                                         ; preds = %.preheader45, %.lr.ph52
  %.251 = phi i64 [ %37, %.lr.ph52 ], [ 0, %.preheader45 ]
  %34 = getelementptr i8, ptr %.043.lcssa, i64 %.251
  %35 = load i8, ptr %34, align 1
  %36 = getelementptr [64 x i8], ptr %15, i64 0, i64 %.251
  store i8 %35, ptr %36, align 1
  %37 = add nuw nsw i64 %.251, 1
  %exitcond55.not = icmp eq i64 %37, %.042.lcssa
  br i1 %exitcond55.not, label %._crit_edge, label %.lr.ph52, !llvm.loop !8

._crit_edge:                                      ; preds = %.lr.ph52, %.preheader45
  call void @sodium_memzero(ptr noundef nonnull %4, i64 noundef 288) #7
  br label %.loopexit

.loopexit:                                        ; preds = %.preheader, %3, %._crit_edge
  call void @llvm.lifetime.end.p0(i64 288, ptr nonnull %4) #7
  ret i32 0
}